; Function Attrs: mustprogress nounwind uwtable
define hidden noundef ptr @_ZN12LinkResolver28resolve_virtual_call_or_nullEP5KlassRK8LinkInfo(ptr noundef %0, ptr nocapture noundef nonnull readonly align 8 dereferenceable(51) %1) local_unnamed_addr #0 align 2 {
  %3 = alloca %class.ExceptionMark, align 8
  %4 = alloca %class.CallInfo, align 8
  call void @_ZN13ExceptionMarkC1Ev(ptr noundef nonnull align 8 dereferenceable(8) %3) #10
  %5 = load ptr, ptr %3, align 8
  %6 = getelementptr inbounds i8, ptr %4, i64 8
  %7 = getelementptr inbounds i8, ptr %4, i64 48
  call void @llvm.memset.p0.i64(ptr noundef nonnull align 8 dereferenceable(32) %6, i8 0, i64 32, i1 false)
  call void @llvm.memset.p0.i64(ptr noundef nonnull align 8 dereferenceable(16) %7, i8 0, i64 16, i1 false)
  call void @_ZN12LinkResolver20resolve_virtual_callER8CallInfo6HandleP5KlassRK8LinkInfobP10JavaThread(ptr noundef nonnull align 8 dereferenceable(64) %4, ptr null, ptr noundef %0, ptr noundef nonnull align 8 dereferenceable(51) %1, i1 noundef zeroext false, ptr noundef %5)
  %8 = getelementptr inbounds i8, ptr %5, i64 8
  %9 = load ptr, ptr %8, align 8
  %.not = icmp eq ptr %9, null
  br i1 %.not, label %11, label %10

10:                                               ; preds = %2
  call void @_ZN12ThreadShadow23clear_pending_exceptionEv(ptr noundef nonnull align 8 dereferenceable(28) %5) #10
  br label %_ZNK8CallInfo15selected_methodEv.exit

11:                                               ; preds = %2
  %12 = load i8, ptr @_ZN11JvmtiExport31_can_hotswap_or_post_breakpointE, align 1
  %13 = trunc i8 %12 to i1
  %14 = getelementptr inbounds i8, ptr %4, i64 24
  %15 = load ptr, ptr %14, align 8
  br i1 %13, label %16, label %_ZNK8CallInfo15selected_methodEv.exit

16:                                               ; preds = %11
  %17 = getelementptr inbounds i8, ptr %15, i64 48
  %18 = load i32, ptr %17, align 4
  %19 = and i32 %18, 4
  %.not.i = icmp eq i32 %19, 0
  br i1 %.not.i, label %_ZNK8CallInfo15selected_methodEv.exit, label %20

20:                                               ; preds = %16
  %21 = getelementptr inbounds i8, ptr %15, i64 8
  %22 = load ptr, ptr %21, align 8
  %23 = getelementptr inbounds i8, ptr %22, i64 8
  %24 = load ptr, ptr %23, align 8
  %25 = getelementptr inbounds i8, ptr %24, i64 24
  %26 = load ptr, ptr %25, align 8
  %27 = getelementptr inbounds i8, ptr %22, i64 50
  %28 = load i16, ptr %27, align 2
  %29 = zext i16 %28 to i32
  %30 = call noundef ptr @_ZN13InstanceKlass17method_with_idnumEi(ptr noundef nonnull align 8 dereferenceable(464) %26, i32 noundef %29) #10
  br label %_ZNK8CallInfo15selected_methodEv.exit

_ZNK8CallInfo15selected_methodEv.exit:            ; preds = %20, %16, %11, %10
  %.0 = phi ptr [ null, %10 ], [ %30, %20 ], [ %15, %16 ], [ %15, %11 ]
  %31 = getelementptr inbounds i8, ptr %4, i64 24
  call void @_ZN12methodHandleD1Ev(ptr noundef nonnull align 8 dereferenceable(16) %31) #10
  call void @_ZN12methodHandleD1Ev(ptr noundef nonnull align 8 dereferenceable(16) %6) #10
  call void @_ZN13ExceptionMarkD1Ev(ptr noundef nonnull align 8 dereferenceable(8) %3) #10
  ret ptr %.0
}